; Function Attrs: mustprogress nofree norecurse nosync nounwind willreturn memory(read, inaccessiblemem: none) uwtable
define noundef range(i32 0, 7) i32 @_ZNK4YAML12EmitterState16CurGroupNodeTypeEv(ptr noundef nonnull readonly align 8 captures(none) dereferenceable(224) %0) local_unnamed_addr #6 align 2 {
  %2 = getelementptr inbounds nuw i8, ptr %0, i64 176
  %3 = load ptr, ptr %2, align 8, !tbaa !97
  %4 = getelementptr inbounds nuw i8, ptr %0, i64 184
  %5 = load ptr, ptr %4, align 8, !tbaa !97
  %6 = icmp eq ptr %3, %5
  br i1 %6, label %15, label %7

7:                                                ; preds = %1
  %8 = getelementptr inbounds i8, ptr %5, i64 -8
  %9 = load ptr, ptr %8, align 8, !tbaa !89
  %10 = load i32, ptr %9, align 8, !tbaa !106
  %11 = icmp eq i32 %10, 1
  %12 = getelementptr inbounds nuw i8, ptr %9, i64 4
  %13 = load i32, ptr %12, align 4, !tbaa !102
  %14 = icmp eq i32 %13, 1
  %..i = select i1 %14, i32 3, i32 4
  %.1.i = select i1 %14, i32 5, i32 6
  %.0.i = select i1 %11, i32 %..i, i32 %.1.i
  br label %15

15:                                               ; preds = %1, %7
  %.0 = phi i32 [ %.0.i, %7 ], [ 0, %1 ]
  ret i32 %.0
}